Certificate:
    Data:
        Version: 3 (0x2)
        Serial Number:
            67:15:89:9b:e1:31:b2:e1:09:e4:bc:b8:41:6e:51:90
        Signature Algorithm: sha256WithRSAEncryption
        Issuer: CN=vulnerablenetwork
        Validity
            Not Before: Nov 14 17:40:32 2019 GMT
            Not After : Oct 29 17:40:32 2022 GMT
        Subject: CN=testclient
        Subject Public Key Info:
            Public Key Algorithm: rsaEncryption
                RSA Public-Key: (2048 bit)
                Modulus:
                    00:bf:f1:48:aa:3c:79:e9:33:a2:1a:3d:27:24:16:
                    b0:4d:06:b1:b9:d1:83:9b:1e:7f:28:af:eb:cb:39:
                    7b:de:cc:0f:a8:8d:d8:41:3f:87:bf:4d:4b:cc:8d:
                    2a:b7:1d:51:b3:f3:a6:e4:ab:51:26:e6:ff:f5:1a:
                    55:1d:7f:4a:f9:cc:8e:85:2c:34:88:74:73:38:af:
                    b0:2a:4c:ff:51:3c:56:d6:a2:0c:75:f2:c7:98:ee:
                    a5:7d:39:fd:80:f9:c2:6a:8a:b8:01:39:0f:ab:7a:
                    11:e1:5f:3b:47:3e:d5:ae:c2:94:3b:fe:f4:81:b3:
                    01:06:20:16:ef:5b:f2:a8:2e:c4:b1:06:66:f9:ae:
                    24:c6:1d:fe:f9:79:41:6e:49:ae:4c:c6:26:ab:eb:
                    f4:e3:62:bb:a9:bc:2e:03:07:1a:46:35:09:6e:ad:
                    0e:a2:90:60:f3:46:f5:bc:76:71:37:e8:0d:31:70:
                    63:06:01:70:23:33:e6:98:e3:11:f9:23:7d:f5:fc:
                    28:2e:6f:c8:f3:1c:5c:d7:8c:c1:04:70:98:f2:d5:
                    3c:4a:90:46:49:1f:18:e9:f6:42:96:90:97:8d:7a:
                    b6:12:32:42:fd:f4:a3:0b:68:63:2f:d4:20:1b:29:
                    a9:6d:8a:84:70:38:a7:a2:c4:25:d9:82:20:df:f4:
                    17:7b
                Exponent: 65537 (0x10001)
        X509v3 extensions:
            X509v3 Basic Constraints: 
                CA:FALSE
            X509v3 Subject Key Identifier: 
                3F:59:BD:B8:A8:41:83:4A:1B:FD:FB:2C:44:56:AD:31:9F:46:71:0E
            X509v3 Authority Key Identifier: 
                keyid:06:1B:39:D3:18:6F:61:B5:B9:6A:10:BF:B0:BE:0E:48:CC:C2:D7:3F
                DirName:/CN=vulnerablenetwork
                serial:4D:3E:54:0F:F4:11:06:A0:29:F6:24:8C:6A:5A:A7:64:EF:55:DC:77

            X509v3 Extended Key Usage: 
                TLS Web Client Authentication
            X509v3 Key Usage: 
                Digital Signature
    Signature Algorithm: sha256WithRSAEncryption
         50:74:82:6e:f6:5e:39:76:80:43:71:f4:4e:7f:c6:2a:b1:5b:
         99:3a:c7:2c:2b:a6:15:d2:79:88:19:b0:45:4e:1e:5e:ae:74:
         3a:7d:2c:18:c0:2b:49:88:c8:00:55:1a:94:96:3b:21:15:23:
         4e:67:69:64:a4:73:40:09:73:e5:32:5e:b3:1d:7f:1f:a7:23:
         34:9a:8f:73:a6:cf:dc:bb:a5:1a:3d:66:5a:f3:3c:3e:bd:25:
         35:50:26:0c:aa:74:9a:59:70:3b:ab:5b:5e:51:fa:ae:b1:2a:
         3e:cb:e7:ae:7b:d5:16:5c:ee:07:10:7f:b2:ae:b3:5d:ae:9e:
         30:af:74:57:5d:a5:54:a1:15:0c:6f:63:db:4d:f1:fe:22:2e:
         5f:6f:d2:16:4e:98:6b:d7:20:39:ca:20:af:ec:17:0e:be:09:
         4d:d9:d4:92:b4:e5:44:f5:bd:ff:01:ff:bc:03:da:8b:18:f5:
         5f:98:91:46:2b:e8:fb:3b:62:c2:ff:df:96:d2:79:ed:87:88:
         dc:19:6e:16:6d:c2:48:56:52:cb:57:07:79:b2:48:e3:bf:9b:
         cd:13:13:26:4e:e7:c9:00:c6:b7:45:1e:c6:c1:16:e1:8d:ad:
         4a:5c:98:25:c9:98:98:8e:74:12:df:76:93:46:c2:7d:21:a1:
         06:a5:db:34
-----BEGIN CERTIFICATE-----
MIIDZDCCAkygAwIBAgIQZxWJm+ExsuEJ5Ly4QW5RkDANBgkqhkiG9w0BAQsFADAc
MRowGAYDVQQDDBF2dWxuZXJhYmxlbmV0d29yazAeFw0xOTExMTQxNzQwMzJaFw0y
MjEwMjkxNzQwMzJaMBUxEzARBgNVBAMMCnRlc3RjbGllbnQwggEiMA0GCSqGSIb3
DQEBAQUAA4IBDwAwggEKAoIBAQC/8UiqPHnpM6IaPSckFrBNBrG50YObHn8or+vL
OXvezA+ojdhBP4e/TUvMjSq3HVGz86bkq1Em5v/1GlUdf0r5zI6FLDSIdHM4r7Aq
TP9RPFbWogx18seY7qV9Of2A+cJqirgBOQ+rehHhXztHPtWuwpQ7/vSBswEGIBbv
W/KoLsSxBmb5riTGHf75eUFuSa5Mxiar6/TjYrupvC4DBxpGNQlurQ6ikGDzRvW8
dnE36A0xcGMGAXAjM+aY4xH5I331/Cgub8jzHFzXjMEEcJjy1TxKkEZJHxjp9kKW
kJeNerYSMkL99KMLaGMv1CAbKaltioRwOKeixCXZgiDf9Bd7AgMBAAGjgagwgaUw
CQYDVR0TBAIwADAdBgNVHQ4EFgQUP1m9uKhBg0ob/fssRFatMZ9GcQ4wVwYDVR0j
BFAwToAUBhs50xhvYbW5ahC/sL4OSMzC1z+hIKQeMBwxGjAYBgNVBAMMEXZ1bG5l
cmFibGVuZXR3b3JrghRNPlQP9BEGoCn2JIxqWqdk71XcdzATBgNVHSUEDDAKBggr
BgEFBQcDAjALBgNVHQ8EBAMCB4AwDQYJKoZIhvcNAQELBQADggEBAFB0gm72Xjl2
gENx9E5/xiqxW5k6xywrphXSeYgZsEVOHl6udDp9LBjAK0mIyABVGpSWOyEVI05n
aWSkc0AJc+UyXrMdfx+nIzSaj3Omz9y7pRo9ZlrzPD69JTVQJgyqdJpZcDurW15R
+q6xKj7L56571RZc7gcQf7Kus12unjCvdFddpVShFQxvY9tN8f4iLl9v0hZOmGvX
IDnKIK/sFw6+CU3Z1JK05UT1vf8B/7wD2osY9V+YkUYr6Ps7YsL/35bSee2HiNwZ
bhZtwkhWUstXB3mySOO/m80TEyZO58kAxrdFHsbBFuGNrUpcmCXJmJiOdBLfdpNG
wn0hoQal2zQ=
-----END CERTIFICATE-----
