Certificate:
    Data:
        Version: 3 (0x2)
        Serial Number:
            bf:4c:40:fb:58:48:b3:7b:39:72:3e:24:c5:35:98:eb
        Signature Algorithm: sha256WithRSAEncryption
        Issuer: CN=vulnerablenetwork
        Validity
            Not Before: Nov 14 17:39:56 2019 GMT
            Not After : Oct 29 17:39:56 2022 GMT
        Subject: CN=vpn.vulnerablenetwork.com
        Subject Public Key Info:
            Public Key Algorithm: rsaEncryption
                RSA Public-Key: (2048 bit)
                Modulus:
                    00:b7:f6:0e:3f:b6:a1:21:86:1e:69:59:0b:a2:5e:
                    2f:77:3a:0f:07:34:ab:30:ad:d9:40:a7:6c:06:e4:
                    b4:17:46:05:40:b8:29:96:38:99:f8:27:ce:88:43:
                    44:c9:45:14:25:eb:e3:ec:0c:3c:df:1f:89:4b:4d:
                    c6:5a:ec:14:2f:fe:eb:6c:b9:b7:c7:1c:25:8d:64:
                    ca:7b:57:24:91:da:be:2b:37:3f:19:20:12:04:63:
                    99:56:7c:20:a1:36:2b:57:eb:a3:bc:89:2b:94:b5:
                    fb:3d:78:5c:77:b9:72:ef:de:15:6c:fc:58:9c:b3:
                    7c:15:9f:ef:47:51:0e:2a:d6:83:8c:16:e2:0a:2d:
                    55:6a:a7:c2:a6:15:65:77:9d:76:ec:d3:b7:8e:53:
                    ad:98:80:51:d8:e5:29:40:2f:f1:32:aa:12:3d:9e:
                    8e:bb:72:2d:97:54:0b:6e:bb:7a:a4:f6:16:20:06:
                    6c:57:86:94:e5:39:bf:7c:6b:a6:87:73:18:7f:45:
                    6e:b0:75:5a:b1:d5:58:98:98:53:5e:7c:b3:ff:92:
                    59:74:bf:5f:65:fe:82:be:f6:20:e5:88:f9:70:0b:
                    a1:b6:c2:32:ff:f0:2a:53:67:7a:e8:73:ef:1b:75:
                    f5:77:15:bc:e3:6f:ea:b3:3e:df:e1:40:5b:48:9f:
                    cf:6d
                Exponent: 65537 (0x10001)
        X509v3 extensions:
            X509v3 Basic Constraints: 
                CA:FALSE
            X509v3 Subject Key Identifier: 
                BC:61:BA:7A:80:D1:C2:C1:49:93:00:24:41:B9:09:99:E8:99:9A:F1
            X509v3 Authority Key Identifier: 
                keyid:06:1B:39:D3:18:6F:61:B5:B9:6A:10:BF:B0:BE:0E:48:CC:C2:D7:3F
                DirName:/CN=vulnerablenetwork
                serial:4D:3E:54:0F:F4:11:06:A0:29:F6:24:8C:6A:5A:A7:64:EF:55:DC:77

            X509v3 Extended Key Usage: 
                TLS Web Server Authentication
            X509v3 Key Usage: 
                Digital Signature, Key Encipherment
            X509v3 Subject Alternative Name: 
                DNS:vpn.vulnerablenetwork.com
    Signature Algorithm: sha256WithRSAEncryption
         3a:94:51:cb:db:df:53:fe:16:49:3c:9d:ac:5e:14:32:d9:c6:
         f0:ba:29:f9:a9:12:4f:4a:e6:ea:58:b7:b8:3f:e0:19:ba:e9:
         73:26:89:12:16:8d:2b:7d:52:18:12:ac:e5:21:e3:a2:84:83:
         74:67:0d:64:bd:06:43:65:91:25:61:87:27:25:ae:8e:43:5a:
         5d:8c:16:e9:c1:b5:a9:cb:40:d0:b2:36:63:9a:be:70:a2:11:
         cf:59:af:48:f5:5f:8c:63:77:35:d3:da:23:18:e8:d7:f6:54:
         09:1d:15:8b:d8:53:f3:12:6c:95:d2:ca:73:67:08:52:83:8d:
         df:e6:02:72:a9:ec:1a:e3:05:d4:98:5e:72:40:97:39:17:eb:
         5e:35:0c:69:5f:03:76:34:da:19:2f:6a:92:01:e1:de:f7:fe:
         78:70:b6:f8:ac:51:77:58:0b:56:27:78:b5:28:5d:1a:10:fb:
         09:f6:0e:b1:ea:2c:37:7f:ec:b0:a8:ea:db:21:1f:2b:af:84:
         85:36:93:26:65:35:87:da:22:f3:79:9b:65:7b:db:e4:20:81:
         41:8c:30:03:75:1f:b4:7b:44:7d:f6:a3:97:f3:b3:bb:eb:4d:
         5d:ee:76:c6:e2:9c:db:ac:d4:7e:2f:07:2f:d4:ea:9f:70:c6:
         f3:e4:4a:28
-----BEGIN CERTIFICATE-----
MIIDmjCCAoKgAwIBAgIRAL9MQPtYSLN7OXI+JMU1mOswDQYJKoZIhvcNAQELBQAw
HDEaMBgGA1UEAwwRdnVsbmVyYWJsZW5ldHdvcmswHhcNMTkxMTE0MTczOTU2WhcN
MjIxMDI5MTczOTU2WjAkMSIwIAYDVQQDDBl2cG4udnVsbmVyYWJsZW5ldHdvcmsu
Y29tMIIBIjANBgkqhkiG9w0BAQEFAAOCAQ8AMIIBCgKCAQEAt/YOP7ahIYYeaVkL
ol4vdzoPBzSrMK3ZQKdsBuS0F0YFQLgpljiZ+CfOiENEyUUUJevj7Aw83x+JS03G
WuwUL/7rbLm3xxwljWTKe1ckkdq+Kzc/GSASBGOZVnwgoTYrV+ujvIkrlLX7PXhc
d7ly794VbPxYnLN8FZ/vR1EOKtaDjBbiCi1VaqfCphVld5127NO3jlOtmIBR2OUp
QC/xMqoSPZ6Ou3Itl1QLbrt6pPYWIAZsV4aU5Tm/fGumh3MYf0VusHVasdVYmJhT
Xnyz/5JZdL9fZf6CvvYg5Yj5cAuhtsIy//AqU2d66HPvG3X1dxW842/qsz7f4UBb
SJ/PbQIDAQABo4HOMIHLMAkGA1UdEwQCMAAwHQYDVR0OBBYEFLxhunqA0cLBSZMA
JEG5CZnomZrxMFcGA1UdIwRQME6AFAYbOdMYb2G1uWoQv7C+DkjMwtc/oSCkHjAc
MRowGAYDVQQDDBF2dWxuZXJhYmxlbmV0d29ya4IUTT5UD/QRBqAp9iSMalqnZO9V
3HcwEwYDVR0lBAwwCgYIKwYBBQUHAwEwCwYDVR0PBAQDAgWgMCQGA1UdEQQdMBuC
GXZwbi52dWxuZXJhYmxlbmV0d29yay5jb20wDQYJKoZIhvcNAQELBQADggEBADqU
Ucvb31P+Fkk8naxeFDLZxvC6KfmpEk9K5upYt7g/4Bm66XMmiRIWjSt9UhgSrOUh
46KEg3RnDWS9BkNlkSVhhyclro5DWl2MFunBtanLQNCyNmOavnCiEc9Zr0j1X4xj
dzXT2iMY6Nf2VAkdFYvYU/MSbJXSynNnCFKDjd/mAnKp7BrjBdSYXnJAlzkX6141
DGlfA3Y02hkvapIB4d73/nhwtvisUXdYC1YneLUoXRoQ+wn2DrHqLDd/7LCo6tsh
HyuvhIU2kyZlNYfaIvN5m2V72+QggUGMMAN1H7R7RH32o5fzs7vrTV3udsbinNus
1H4vBy/U6p9wxvPkSig=
-----END CERTIFICATE-----
